target datalayout = "e-m:e-p270:32:32-p271:32:32-p272:64:64-i64:64-i128:128-f80:128-n8:16:32:64-S128"
target triple = "x86_64-unknown-linux-gnu"

%"struct.boost::intrusive::list_node" = type { ptr, ptr }
%"class.std::function" = type { %"class.std::_Function_base", ptr }
%"class.std::_Function_base" = type { %"union.std::_Any_data", ptr }
%"union.std::_Any_data" = type { %"union.std::_Nocopy_types" }
%"union.std::_Nocopy_types" = type { { i64, i64 } }
%"class.proxygen::ByteEvent" = type { ptr, %"class.boost::intrusive::list_member_hook", i64, %"class.std::function" }
%"class.boost::intrusive::list_member_hook" = type { %"class.boost::intrusive::generic_hook" }
%"class.boost::intrusive::generic_hook" = type { %"struct.boost::intrusive::list_node" }
%"class.proxygen::TransactionByteEvent" = type { %"class.proxygen::ByteEvent", ptr }

; Function Attrs: mustprogress nounwind uwtable
define linkonce_odr void @_ZNSt14_Function_baseD2Ev(ptr noundef nonnull align 8 dereferenceable(24) %this) unnamed_addr #5 comdat align 2 personality ptr @__gxx_personality_v0 {
entry:
  %this.addr = alloca ptr, align 8
  store ptr %this, ptr %this.addr, align 8
  %this1 = load ptr, ptr %this.addr, align 8
  %_M_manager = getelementptr inbounds %"class.std::_Function_base", ptr %this1, i32 0, i32 1
  %0 = load ptr, ptr %_M_manager, align 8
  %tobool = icmp ne ptr %0, null
  br i1 %tobool, label %if.then, label %if.end

if.then:                                          ; preds = %entry
  %_M_manager2 = getelementptr inbounds %"class.std::_Function_base", ptr %this1, i32 0, i32 1
  %1 = load ptr, ptr %_M_manager2, align 8
  %_M_functor = getelementptr inbounds %"class.std::_Function_base", ptr %this1, i32 0, i32 0
  %_M_functor3 = getelementptr inbounds %"class.std::_Function_base", ptr %this1, i32 0, i32 0
  %call = invoke noundef zeroext i1 %1(ptr noundef nonnull align 8 dereferenceable(16) %_M_functor, ptr noundef nonnull align 8 dereferenceable(16) %_M_functor3, i32 noundef 3)
          to label %invoke.cont unwind label %terminate.lpad

invoke.cont:                                      ; preds = %if.then
  br label %if.end

if.end:                                           ; preds = %invoke.cont, %entry
  ret void

terminate.lpad:                                   ; preds = %if.then
  %2 = landingpad { ptr, i32 }
          catch ptr null
  %3 = extractvalue { ptr, i32 } %2, 0
  call void @__clang_call_terminate(ptr %3) #16
  unreachable
}

; Function Attrs: mustprogress nounwind uwtable
define linkonce_odr void @_ZN5boost9intrusive16list_member_hookIJNS0_9link_modeILNS0_14link_mode_typeE1EEEEED2Ev(ptr noundef nonnull align 8 dereferenceable(16) %this) unnamed_addr #5 comdat align 2 personality ptr @__gxx_personality_v0 {
entry:
  %hook.addr.i = alloca ptr, align 8
  %this.addr.i = alloca ptr, align 8
  %this.addr = alloca ptr, align 8
  store ptr %this, ptr %this.addr, align 8
  %this1 = load ptr, ptr %this.addr, align 8
  store ptr %this1, ptr %this.addr.i, align 8
  %this1.i = load ptr, ptr %this.addr.i, align 8
  store ptr %this1.i, ptr %hook.addr.i, align 8
  br label %_ZN5boost9intrusive12generic_hookILNS0_10algo_typesE0ENS0_16list_node_traitsIPvEENS0_10member_tagELNS0_14link_mode_typeE1ELNS0_14base_hook_typeE0EED2Ev.exit

terminate.lpad.i:                                 ; No predecessors!
  %0 = landingpad { ptr, i32 }
          catch ptr null
  %1 = extractvalue { ptr, i32 } %0, 0
  call void @__clang_call_terminate(ptr %1) #16
  unreachable

_ZN5boost9intrusive12generic_hookILNS0_10algo_typesE0ENS0_16list_node_traitsIPvEENS0_10member_tagELNS0_14link_mode_typeE1ELNS0_14base_hook_typeE0EED2Ev.exit: ; preds = %entry
  ret void
}

; Function Attrs: mustprogress nounwind uwtable
define linkonce_odr void @_ZNSt8functionIFvRN8proxygen9ByteEventEEED2Ev(ptr noundef nonnull align 8 dereferenceable(32) %this) unnamed_addr #5 comdat align 2 {
entry:
  %this.addr = alloca ptr, align 8
  store ptr %this, ptr %this.addr, align 8
  %this1 = load ptr, ptr %this.addr, align 8
  call void @_ZNSt14_Function_baseD2Ev(ptr noundef nonnull align 8 dereferenceable(24) %this1) #3
  ret void
}

; Function Attrs: mustprogress nounwind uwtable
define linkonce_odr void @_ZN8proxygen9ByteEventD2Ev(ptr noundef nonnull align 8 dereferenceable(64) %this) unnamed_addr #5 comdat align 2 {
entry:
  %this.addr = alloca ptr, align 8
  store ptr %this, ptr %this.addr, align 8
  %this1 = load ptr, ptr %this.addr, align 8
  store ptr getelementptr inbounds ({ [6 x ptr] }, ptr @_ZTVN8proxygen9ByteEventE, i32 0, i32 0, i32 2), ptr %this1, align 8
  %callback_ = getelementptr inbounds %"class.proxygen::ByteEvent", ptr %this1, i32 0, i32 3
  call void @_ZNSt8functionIFvRN8proxygen9ByteEventEEED2Ev(ptr noundef nonnull align 8 dereferenceable(32) %callback_) #3
  %listHook = getelementptr inbounds %"class.proxygen::ByteEvent", ptr %this1, i32 0, i32 1
  call void @_ZN5boost9intrusive16list_member_hookIJNS0_9link_modeILNS0_14link_mode_typeE1EEEEED2Ev(ptr noundef nonnull align 8 dereferenceable(16) %listHook) #3
  ret void
}

; Function Attrs: mustprogress nounwind uwtable
define linkonce_odr void @_ZN8proxygen20TransactionByteEventD2Ev(ptr noundef nonnull align 8 dereferenceable(72) %this) unnamed_addr #5 comdat align 2 personality ptr @__gxx_personality_v0 {
entry:
  %this.addr = alloca ptr, align 8
  store ptr %this, ptr %this.addr, align 8
  %this1 = load ptr, ptr %this.addr, align 8
  store ptr getelementptr inbounds ({ [6 x ptr] }, ptr @_ZTVN8proxygen20TransactionByteEventE, i32 0, i32 0, i32 2), ptr %this1, align 8
  %txn_ = getelementptr inbounds %"class.proxygen::TransactionByteEvent", ptr %this1, i32 0, i32 1
  %0 = load ptr, ptr %txn_, align 8
  invoke void @_ZN8proxygen15HTTPTransaction26decrementPendingByteEventsEv(ptr noundef nonnull align 8 dereferenceable(912) %0)
          to label %invoke.cont unwind label %terminate.lpad

invoke.cont:                                      ; preds = %entry
  call void @_ZN8proxygen9ByteEventD2Ev(ptr noundef nonnull align 8 dereferenceable(64) %this1) #3
  ret void

terminate.lpad:                                   ; preds = %entry
  %1 = landingpad { ptr, i32 }
          catch ptr null
  %2 = extractvalue { ptr, i32 } %1, 0
  call void @__clang_call_terminate(ptr %2) #16
  unreachable
}

; Function Attrs: mustprogress nounwind uwtable
define linkonce_odr void @_ZN4quic10QuicSocket17ByteEventCallbackD2Ev(ptr noundef nonnull align 8 dereferenceable(8) %this) unnamed_addr #5 comdat align 2 {
entry:
  %this.addr = alloca ptr, align 8
  store ptr %this, ptr %this.addr, align 8
  ret void
}

; Function Attrs: mustprogress nounwind uwtable
define internal void @_ZN12_GLOBAL__N_120HQTransportByteEventD2Ev(ptr noundef nonnull align 8 dereferenceable(80) %this) unnamed_addr #5 align 2 {
entry:
  %this.addr = alloca ptr, align 8
  store ptr %this, ptr %this.addr, align 8
  %this1 = load ptr, ptr %this.addr, align 8
  %0 = getelementptr inbounds i8, ptr %this1, i64 72
  call void @_ZN4quic10QuicSocket17ByteEventCallbackD2Ev(ptr noundef nonnull align 8 dereferenceable(8) %0) #3
  call void @_ZN8proxygen20TransactionByteEventD2Ev(ptr noundef nonnull align 8 dereferenceable(72) %this1) #3
  ret void
}

; Function Attrs: mustprogress nounwind uwtable
define internal void @_ZN12_GLOBAL__N_120HQTransportByteEventD0Ev(ptr noundef nonnull align 8 dereferenceable(80) %this) unnamed_addr #5 align 2 {
entry:
  %this.addr = alloca ptr, align 8
  store ptr %this, ptr %this.addr, align 8
  %this1 = load ptr, ptr %this.addr, align 8
  call void @_ZN12_GLOBAL__N_120HQTransportByteEventD2Ev(ptr noundef nonnull align 8 dereferenceable(80) %this1) #3
  call void @_ZdlPv(ptr noundef %this1) #15
  ret void
}